target datalayout = "e-m:e-p270:32:32-p271:32:32-p272:64:64-i64:64-i128:128-f80:128-n8:16:32:64-S128"
target triple = "x86_64-pc-linux-gnu"

%"class.doctest::String" = type { %union.anon.7 }
%union.anon.7 = type { %"struct.doctest::String::view", [8 x i8] }
%"struct.doctest::String::view" = type { ptr, i32, i32 }

; Function Attrs: mustprogress nounwind uwtable
define linkonce_odr dso_local noundef zeroext i1 @_ZNK7doctest6String9isOnStackEv(ptr noundef nonnull align 8 dereferenceable(24) %0) #1 comdat align 2 {
  %2 = alloca ptr, align 8
  store ptr %0, ptr %2, align 8, !tbaa !59
  %3 = load ptr, ptr %2, align 8
  %4 = getelementptr inbounds nuw %"class.doctest::String", ptr %3, i32 0, i32 0
  %5 = getelementptr inbounds nuw [24 x i8], ptr %4, i64 0, i64 23
  %6 = load i8, ptr %5, align 1, !tbaa !55
  %7 = sext i8 %6 to i32
  %8 = and i32 %7, 128
  %9 = icmp eq i32 %8, 0
  ret i1 %9
}

; Function Attrs: mustprogress nounwind uwtable
define dso_local noundef nonnull align 1 dereferenceable(1) ptr @_ZN7doctest6StringixEj(ptr noundef nonnull align 8 dereferenceable(24) %0, i32 noundef %1) #1 align 2 {
  %3 = alloca ptr, align 8
  %4 = alloca ptr, align 8
  %5 = alloca i32, align 4
  store ptr %0, ptr %4, align 8, !tbaa !59
  store i32 %1, ptr %5, align 4, !tbaa !4
  %6 = load ptr, ptr %4, align 8
  %7 = call noundef zeroext i1 @_ZNK7doctest6String9isOnStackEv(ptr noundef nonnull align 8 dereferenceable(24) %6) #7
  br i1 %7, label %8, label %14

8:                                                ; preds = %2
  %9 = getelementptr inbounds nuw %"class.doctest::String", ptr %6, i32 0, i32 0
  %10 = getelementptr inbounds [24 x i8], ptr %9, i64 0, i64 0
  %11 = load i32, ptr %5, align 4, !tbaa !4
  %12 = zext i32 %11 to i64
  %13 = getelementptr inbounds nuw i8, ptr %10, i64 %12
  store ptr %13, ptr %3, align 8
  br label %21

14:                                               ; preds = %2
  %15 = getelementptr inbounds nuw %"class.doctest::String", ptr %6, i32 0, i32 0
  %16 = getelementptr inbounds nuw %"struct.doctest::String::view", ptr %15, i32 0, i32 0
  %17 = load ptr, ptr %16, align 8, !tbaa !55
  %18 = load i32, ptr %5, align 4, !tbaa !4
  %19 = zext i32 %18 to i64
  %20 = getelementptr inbounds nuw i8, ptr %17, i64 %19
  store ptr %20, ptr %3, align 8
  br label %21

21:                                               ; preds = %14, %8
  %22 = load ptr, ptr %3, align 8
  ret ptr %22
}

; Function Attrs: mustprogress uwtable
define dso_local noundef signext i8 @_ZNK7doctest6StringixEj(ptr noundef nonnull align 8 dereferenceable(24) %0, i32 noundef %1) #8 align 2 {
  %3 = alloca ptr, align 8
  %4 = alloca i32, align 4
  store ptr %0, ptr %3, align 8, !tbaa !59
  store i32 %1, ptr %4, align 4, !tbaa !4
  %5 = load ptr, ptr %3, align 8
  %6 = load i32, ptr %4, align 4, !tbaa !4
  %7 = call noundef nonnull align 1 dereferenceable(1) ptr @_ZN7doctest6StringixEj(ptr noundef nonnull align 8 dereferenceable(24) %5, i32 noundef %6)
  %8 = load i8, ptr %7, align 1, !tbaa !55
  ret i8 %8
}