; Function Attrs: mustprogress nofree norecurse nosync nounwind willreturn memory(read, inaccessiblemem: none) uwtable
define dso_local noundef signext i8 @_ZNK7doctest6StringixEj(ptr noundef nonnull readonly align 8 captures(none) dereferenceable(24) %0, i32 noundef %1) local_unnamed_addr #19 align 2 {
  %3 = getelementptr inbounds nuw i8, ptr %0, i64 23
  %4 = load i8, ptr %3, align 1, !tbaa !38
  %5 = zext i32 %1 to i64
  %6 = load ptr, ptr %0, align 8
  %7 = icmp slt i8 %4, 0
  %.0.v.i = select i1 %7, ptr %6, ptr %0
  %.0.i = getelementptr inbounds nuw i8, ptr %.0.v.i, i64 %5
  %8 = load i8, ptr %.0.i, align 1, !tbaa !38
  ret i8 %8
}